target datalayout = "e-m:e-p270:32:32-p271:32:32-p272:64:64-i64:64-i128:128-f80:128-n8:16:32:64-S128"
target triple = "x86_64-pc-linux-gnu"

%"struct.std::__atomic_base" = type { i32 }
%"struct.std::_Vector_base.41" = type { %"struct.std::_Vector_base<pbrt::MortonPrimitive, std::allocator<pbrt::MortonPrimitive>>::_Vector_impl" }
%"struct.std::_Vector_base<pbrt::MortonPrimitive, std::allocator<pbrt::MortonPrimitive>>::_Vector_impl" = type { %"struct.std::_Vector_base<pbrt::MortonPrimitive, std::allocator<pbrt::MortonPrimitive>>::_Vector_impl_data" }
%"struct.std::_Vector_base<pbrt::MortonPrimitive, std::allocator<pbrt::MortonPrimitive>>::_Vector_impl_data" = type { ptr, ptr, ptr }
%"struct.std::_Vector_base.47" = type { %"struct.std::_Vector_base<pbrt::LBVHTreelet, std::allocator<pbrt::LBVHTreelet>>::_Vector_impl" }
%"struct.std::_Vector_base<pbrt::LBVHTreelet, std::allocator<pbrt::LBVHTreelet>>::_Vector_impl" = type { %"struct.std::_Vector_base<pbrt::LBVHTreelet, std::allocator<pbrt::LBVHTreelet>>::_Vector_impl_data" }
%"struct.std::_Vector_base<pbrt::LBVHTreelet, std::allocator<pbrt::LBVHTreelet>>::_Vector_impl_data" = type { ptr, ptr, ptr }
%"struct.pbrt::LBVHTreelet" = type { i64, i64, ptr }
%class.anon.51 = type { ptr, ptr, ptr, ptr, ptr, ptr, ptr }
%"struct.pbrt::MortonPrimitive" = type { i32, i32 }

; Function Attrs: mustprogress nounwind uwtable
define linkonce_odr dso_local noundef i32 @_ZNSt13__atomic_baseIiEpLEi(ptr noundef nonnull align 4 dereferenceable(4) %0, i32 noundef %1) #5 comdat align 2 {
  %3 = alloca ptr, align 8
  %4 = alloca i32, align 4
  %5 = alloca i32, align 4
  %6 = alloca i32, align 4
  store ptr %0, ptr %3, align 8, !tbaa !126
  store i32 %1, ptr %4, align 4, !tbaa !18
  %7 = load ptr, ptr %3, align 8
  %8 = getelementptr inbounds nuw %"struct.std::__atomic_base", ptr %7, i32 0, i32 0
  %9 = load i32, ptr %4, align 4, !tbaa !18
  store i32 %9, ptr %5, align 4, !tbaa !18
  %10 = load i32, ptr %5, align 4
  %11 = atomicrmw add ptr %8, i32 %10 seq_cst, align 4
  %12 = add i32 %11, %10
  store i32 %12, ptr %6, align 4
  %13 = load i32, ptr %6, align 4, !tbaa !18
  ret i32 %13
}

; Function Attrs: mustprogress nounwind uwtable
define linkonce_odr dso_local noundef nonnull align 4 dereferenceable(8) ptr @_ZNSt6vectorIN4pbrt15MortonPrimitiveESaIS1_EEixEm(ptr noundef nonnull align 8 dereferenceable(24) %0, i64 noundef %1) #5 comdat align 2 {
  %3 = alloca ptr, align 8
  %4 = alloca i64, align 8
  store ptr %0, ptr %3, align 8, !tbaa !84
  store i64 %1, ptr %4, align 8, !tbaa !32
  %5 = load ptr, ptr %3, align 8
  %6 = getelementptr inbounds nuw %"struct.std::_Vector_base.41", ptr %5, i32 0, i32 0
  %7 = getelementptr inbounds nuw %"struct.std::_Vector_base<pbrt::MortonPrimitive, std::allocator<pbrt::MortonPrimitive>>::_Vector_impl_data", ptr %6, i32 0, i32 0
  %8 = load ptr, ptr %7, align 8, !tbaa !193
  %9 = load i64, ptr %4, align 8, !tbaa !32
  %10 = getelementptr inbounds nuw %"struct.pbrt::MortonPrimitive", ptr %8, i64 %9
  ret ptr %10
}

; Function Attrs: mustprogress nounwind uwtable
define linkonce_odr dso_local noundef nonnull align 8 dereferenceable(24) ptr @_ZNSt6vectorIN4pbrt11LBVHTreeletESaIS1_EEixEm(ptr noundef nonnull align 8 dereferenceable(24) %0, i64 noundef %1) #5 comdat align 2 {
  %3 = alloca ptr, align 8
  %4 = alloca i64, align 8
  store ptr %0, ptr %3, align 8, !tbaa !93
  store i64 %1, ptr %4, align 8, !tbaa !32
  %5 = load ptr, ptr %3, align 8
  %6 = getelementptr inbounds nuw %"struct.std::_Vector_base.47", ptr %5, i32 0, i32 0
  %7 = getelementptr inbounds nuw %"struct.std::_Vector_base<pbrt::LBVHTreelet, std::allocator<pbrt::LBVHTreelet>>::_Vector_impl_data", ptr %6, i32 0, i32 0
  %8 = load ptr, ptr %7, align 8, !tbaa !196
  %9 = load i64, ptr %4, align 8, !tbaa !32
  %10 = getelementptr inbounds nuw %"struct.pbrt::LBVHTreelet", ptr %8, i64 %9
  ret ptr %10
}

; Function Attrs: inlinehint mustprogress uwtable
define internal void @"_ZZN4pbrt12BVHAggregate10buildHLBVHEN4pstd3pmr21polymorphic_allocatorISt4byteEERKSt6vectorINS_12BVHPrimitiveESaIS7_EEPSt6atomicIiERS6_INS_9PrimitiveESaISF_EEENK3$_1clEi"(ptr noundef nonnull align 8 dereferenceable(56) %0, i32 noundef %1) #11 align 2 {
  %3 = alloca ptr, align 8
  %4 = alloca i32, align 4
  %5 = alloca i32, align 4
  %6 = alloca i32, align 4
  %7 = alloca ptr, align 8
  store ptr %0, ptr %3, align 8, !tbaa !13
  store i32 %1, ptr %4, align 4, !tbaa !18
  %8 = load ptr, ptr %3, align 8
  %9 = getelementptr inbounds nuw %class.anon.51, ptr %8, i32 0, i32 1
  %10 = load ptr, ptr %9, align 8, !tbaa !95
  call void @llvm.lifetime.start.p0(i64 4, ptr %5) #21
  store i32 0, ptr %5, align 4, !tbaa !18
  call void @llvm.lifetime.start.p0(i64 4, ptr %6) #21
  store i32 17, ptr %6, align 4, !tbaa !18
  call void @llvm.lifetime.start.p0(i64 8, ptr %7) #21
  %11 = getelementptr inbounds nuw %class.anon.51, ptr %8, i32 0, i32 0
  %12 = load ptr, ptr %11, align 8, !tbaa !702
  %13 = load i32, ptr %4, align 4, !tbaa !18
  %14 = sext i32 %13 to i64
  %15 = call noundef nonnull align 8 dereferenceable(24) ptr @_ZNSt6vectorIN4pbrt11LBVHTreeletESaIS1_EEixEm(ptr noundef nonnull align 8 dereferenceable(24) %12, i64 noundef %14) #21
  store ptr %15, ptr %7, align 8, !tbaa !100
  %16 = load ptr, ptr %7, align 8, !tbaa !100
  %17 = getelementptr inbounds nuw %"struct.pbrt::LBVHTreelet", ptr %16, i32 0, i32 2
  %18 = getelementptr inbounds nuw %class.anon.51, ptr %8, i32 0, i32 2
  %19 = load ptr, ptr %18, align 8, !tbaa !703
  %20 = getelementptr inbounds nuw %class.anon.51, ptr %8, i32 0, i32 3
  %21 = load ptr, ptr %20, align 8, !tbaa !704
  %22 = load ptr, ptr %7, align 8, !tbaa !100
  %23 = getelementptr inbounds nuw %"struct.pbrt::LBVHTreelet", ptr %22, i32 0, i32 0
  %24 = load i64, ptr %23, align 8, !tbaa !88
  %25 = call noundef nonnull align 4 dereferenceable(8) ptr @_ZNSt6vectorIN4pbrt15MortonPrimitiveESaIS1_EEixEm(ptr noundef nonnull align 8 dereferenceable(24) %21, i64 noundef %24) #21
  %26 = load ptr, ptr %7, align 8, !tbaa !100
  %27 = getelementptr inbounds nuw %"struct.pbrt::LBVHTreelet", ptr %26, i32 0, i32 1
  %28 = load i64, ptr %27, align 8, !tbaa !90
  %29 = trunc i64 %28 to i32
  %30 = getelementptr inbounds nuw %class.anon.51, ptr %8, i32 0, i32 4
  %31 = load ptr, ptr %30, align 8, !tbaa !705
  %32 = getelementptr inbounds nuw %class.anon.51, ptr %8, i32 0, i32 5
  %33 = load ptr, ptr %32, align 8, !tbaa !706
  %34 = call noundef ptr @_ZN4pbrt12BVHAggregate8emitLBVHERPNS_12BVHBuildNodeERKSt6vectorINS_12BVHPrimitiveESaIS5_EEPNS_15MortonPrimitiveEiPiRS4_INS_9PrimitiveESaISD_EEPSt6atomicIiEi(ptr noundef nonnull align 8 dereferenceable(48) %10, ptr noundef nonnull align 8 dereferenceable(8) %17, ptr noundef nonnull align 8 dereferenceable(24) %19, ptr noundef %25, i32 noundef %29, ptr noundef %5, ptr noundef nonnull align 8 dereferenceable(24) %31, ptr noundef %33, i32 noundef 17)
  %35 = load ptr, ptr %7, align 8, !tbaa !100
  %36 = getelementptr inbounds nuw %"struct.pbrt::LBVHTreelet", ptr %35, i32 0, i32 2
  store ptr %34, ptr %36, align 8, !tbaa !91
  %37 = load i32, ptr %5, align 4, !tbaa !18
  %38 = getelementptr inbounds nuw %class.anon.51, ptr %8, i32 0, i32 6
  %39 = load ptr, ptr %38, align 8, !tbaa !707
  %40 = load ptr, ptr %39, align 8, !tbaa !82
  %41 = call noundef i32 @_ZNSt13__atomic_baseIiEpLEi(ptr noundef nonnull align 4 dereferenceable(4) %40, i32 noundef %37) #21
  call void @llvm.lifetime.end.p0(i64 8, ptr %7) #21
  call void @llvm.lifetime.end.p0(i64 4, ptr %6) #21
  call void @llvm.lifetime.end.p0(i64 4, ptr %5) #21
  ret void
}

; Function Attrs: mustprogress nounwind uwtable
define linkonce_odr dso_local noundef ptr @_ZNKSt9_Any_data9_M_accessEv(ptr noundef nonnull align 8 dereferenceable(16) %0) #5 comdat align 2 {
  %2 = alloca ptr, align 8
  store ptr %0, ptr %2, align 8, !tbaa !484
  %3 = load ptr, ptr %2, align 8
  %4 = getelementptr inbounds [16 x i8], ptr %3, i64 0, i64 0
  ret ptr %4
}

; Function Attrs: mustprogress uwtable
define internal void @"_ZSt13__invoke_implIvRZN4pbrt12BVHAggregate10buildHLBVHEN4pstd3pmr21polymorphic_allocatorISt4byteEERKSt6vectorINS0_12BVHPrimitiveESaIS8_EEPSt6atomicIiERS7_INS0_9PrimitiveESaISG_EEE3$_1JlEET_St14__invoke_otherOT0_DpOT1_"(ptr noundef nonnull align 8 dereferenceable(56) %0, ptr noundef nonnull align 8 dereferenceable(8) %1) #1 {
  %3 = alloca ptr, align 8
  %4 = alloca ptr, align 8
  store ptr %0, ptr %3, align 8, !tbaa !13
  store ptr %1, ptr %4, align 8, !tbaa !130
  %5 = load ptr, ptr %3, align 8, !tbaa !13
  %6 = load ptr, ptr %4, align 8, !tbaa !130
  %7 = load i64, ptr %6, align 8, !tbaa !32
  %8 = trunc i64 %7 to i32
  call void @"_ZZN4pbrt12BVHAggregate10buildHLBVHEN4pstd3pmr21polymorphic_allocatorISt4byteEERKSt6vectorINS_12BVHPrimitiveESaIS7_EEPSt6atomicIiERS6_INS_9PrimitiveESaISF_EEENK3$_1clEi"(ptr noundef nonnull align 8 dereferenceable(56) %5, i32 noundef %8)
  ret void
}

; Function Attrs: mustprogress nounwind uwtable
define internal noundef nonnull align 8 dereferenceable(8) ptr @"_ZNKSt9_Any_data9_M_accessIPZN4pbrt12BVHAggregate10buildHLBVHEN4pstd3pmr21polymorphic_allocatorISt4byteEERKSt6vectorINS1_12BVHPrimitiveESaIS9_EEPSt6atomicIiERS8_INS1_9PrimitiveESaISH_EEE3$_1EERKT_v"(ptr noundef nonnull align 8 dereferenceable(16) %0) #5 align 2 {
  %2 = alloca ptr, align 8
  store ptr %0, ptr %2, align 8, !tbaa !484
  %3 = load ptr, ptr %2, align 8
  %4 = call noundef ptr @_ZNKSt9_Any_data9_M_accessEv(ptr noundef nonnull align 8 dereferenceable(16) %3) #21
  ret ptr %4
}

; Function Attrs: mustprogress uwtable
define internal void @"_ZSt10__invoke_rIvRZN4pbrt12BVHAggregate10buildHLBVHEN4pstd3pmr21polymorphic_allocatorISt4byteEERKSt6vectorINS0_12BVHPrimitiveESaIS8_EEPSt6atomicIiERS7_INS0_9PrimitiveESaISG_EEE3$_1JlEENSt9enable_ifIX16is_invocable_r_vIT_T0_DpT1_EESN_E4typeEOSO_DpOSP_"(ptr noundef nonnull align 8 dereferenceable(56) %0, ptr noundef nonnull align 8 dereferenceable(8) %1) #1 {
  %3 = alloca ptr, align 8
  %4 = alloca ptr, align 8
  store ptr %0, ptr %3, align 8, !tbaa !13
  store ptr %1, ptr %4, align 8, !tbaa !130
  %5 = load ptr, ptr %3, align 8, !tbaa !13
  %6 = load ptr, ptr %4, align 8, !tbaa !130
  call void @"_ZSt13__invoke_implIvRZN4pbrt12BVHAggregate10buildHLBVHEN4pstd3pmr21polymorphic_allocatorISt4byteEERKSt6vectorINS0_12BVHPrimitiveESaIS8_EEPSt6atomicIiERS7_INS0_9PrimitiveESaISG_EEE3$_1JlEET_St14__invoke_otherOT0_DpOT1_"(ptr noundef nonnull align 8 dereferenceable(56) %5, ptr noundef nonnull align 8 dereferenceable(8) %6)
  ret void
}

; Function Attrs: mustprogress nounwind uwtable
define internal noundef ptr @"_ZNSt14_Function_base13_Base_managerIZN4pbrt12BVHAggregate10buildHLBVHEN4pstd3pmr21polymorphic_allocatorISt4byteEERKSt6vectorINS1_12BVHPrimitiveESaIS9_EEPSt6atomicIiERS8_INS1_9PrimitiveESaISH_EEE3$_1E14_M_get_pointerERKSt9_Any_data"(ptr noundef nonnull align 8 dereferenceable(16) %0) #5 align 2 {
  %2 = alloca ptr, align 8
  store ptr %0, ptr %2, align 8, !tbaa !484
  %3 = load ptr, ptr %2, align 8, !tbaa !484
  %4 = call noundef nonnull align 8 dereferenceable(8) ptr @"_ZNKSt9_Any_data9_M_accessIPZN4pbrt12BVHAggregate10buildHLBVHEN4pstd3pmr21polymorphic_allocatorISt4byteEERKSt6vectorINS1_12BVHPrimitiveESaIS9_EEPSt6atomicIiERS8_INS1_9PrimitiveESaISH_EEE3$_1EERKT_v"(ptr noundef nonnull align 8 dereferenceable(16) %3) #21
  %5 = load ptr, ptr %4, align 8, !tbaa !13
  ret ptr %5
}

; Function Attrs: mustprogress uwtable
define internal void @"_ZNSt17_Function_handlerIFvlEZN4pbrt12BVHAggregate10buildHLBVHEN4pstd3pmr21polymorphic_allocatorISt4byteEERKSt6vectorINS1_12BVHPrimitiveESaIS9_EEPSt6atomicIiERS8_INS1_9PrimitiveESaISH_EEE3$_1E9_M_invokeERKSt9_Any_dataOl"(ptr noundef nonnull align 8 dereferenceable(16) %0, ptr noundef nonnull align 8 dereferenceable(8) %1) #1 align 2 {
  %3 = alloca ptr, align 8
  %4 = alloca ptr, align 8
  store ptr %0, ptr %3, align 8, !tbaa !484
  store ptr %1, ptr %4, align 8, !tbaa !130
  %5 = load ptr, ptr %3, align 8, !tbaa !484
  %6 = call noundef ptr @"_ZNSt14_Function_base13_Base_managerIZN4pbrt12BVHAggregate10buildHLBVHEN4pstd3pmr21polymorphic_allocatorISt4byteEERKSt6vectorINS1_12BVHPrimitiveESaIS9_EEPSt6atomicIiERS8_INS1_9PrimitiveESaISH_EEE3$_1E14_M_get_pointerERKSt9_Any_data"(ptr noundef nonnull align 8 dereferenceable(16) %5) #21
  %7 = load ptr, ptr %4, align 8, !tbaa !130
  call void @"_ZSt10__invoke_rIvRZN4pbrt12BVHAggregate10buildHLBVHEN4pstd3pmr21polymorphic_allocatorISt4byteEERKSt6vectorINS0_12BVHPrimitiveESaIS8_EEPSt6atomicIiERS7_INS0_9PrimitiveESaISG_EEE3$_1JlEENSt9enable_ifIX16is_invocable_r_vIT_T0_DpT1_EESN_E4typeEOSO_DpOSP_"(ptr noundef nonnull align 8 dereferenceable(56) %6, ptr noundef nonnull align 8 dereferenceable(8) %7)
  ret void
}