; Function Attrs: mustprogress uwtable
define internal void @"_ZNSt17_Function_handlerIFvlEZN4pbrt12BVHAggregate10buildHLBVHEN4pstd3pmr21polymorphic_allocatorISt4byteEERKSt6vectorINS1_12BVHPrimitiveESaIS9_EEPSt6atomicIiERS8_INS1_9PrimitiveESaISH_EEE3$_1E9_M_invokeERKSt9_Any_dataOl"(ptr noundef nonnull readonly align 8 captures(none) dereferenceable(16) %0, ptr noundef nonnull readonly align 8 captures(none) dereferenceable(8) %1) #2 align 2 {
  %3 = alloca i32, align 4
  %.val = load ptr, ptr %0, align 8, !tbaa !107
  %.val2 = load i64, ptr %1, align 8, !tbaa !49
  %4 = getelementptr inbounds nuw i8, ptr %.val, i64 8
  %5 = load ptr, ptr %4, align 8, !tbaa !806
  call void @llvm.lifetime.start.p0(i64 4, ptr nonnull %3) #31
  store i32 0, ptr %3, align 4, !tbaa !48
  %6 = load ptr, ptr %.val, align 8, !tbaa !808
  %sext.i.i = shl i64 %.val2, 32
  %7 = ashr exact i64 %sext.i.i, 32
  %8 = load ptr, ptr %6, align 8, !tbaa !118
  %9 = getelementptr inbounds nuw %"struct.pbrt::LBVHTreelet", ptr %8, i64 %7
  %10 = getelementptr inbounds nuw i8, ptr %9, i64 16
  %11 = getelementptr inbounds nuw i8, ptr %.val, i64 16
  %12 = load ptr, ptr %11, align 8, !tbaa !809
  %13 = getelementptr inbounds nuw i8, ptr %.val, i64 24
  %14 = load ptr, ptr %13, align 8, !tbaa !810
  %15 = load i64, ptr %9, align 8, !tbaa !811
  %16 = load ptr, ptr %14, align 8, !tbaa !95
  %17 = getelementptr inbounds nuw %"struct.pbrt::MortonPrimitive", ptr %16, i64 %15
  %18 = getelementptr inbounds nuw i8, ptr %9, i64 8
  %19 = load i64, ptr %18, align 8, !tbaa !813
  %20 = trunc i64 %19 to i32
  %21 = getelementptr inbounds nuw i8, ptr %.val, i64 32
  %22 = load ptr, ptr %21, align 8, !tbaa !814
  %23 = getelementptr inbounds nuw i8, ptr %.val, i64 40
  %24 = load ptr, ptr %23, align 8, !tbaa !815
  %25 = call noundef ptr @_ZN4pbrt12BVHAggregate8emitLBVHERPNS_12BVHBuildNodeERKSt6vectorINS_12BVHPrimitiveESaIS5_EEPNS_15MortonPrimitiveEiPiRS4_INS_9PrimitiveESaISD_EEPSt6atomicIiEi(ptr noundef nonnull align 8 dereferenceable(48) %5, ptr noundef nonnull align 8 dereferenceable(8) %10, ptr noundef nonnull align 8 dereferenceable(24) %12, ptr noundef nonnull %17, i32 noundef %20, ptr noundef nonnull %3, ptr noundef nonnull align 8 dereferenceable(24) %22, ptr noundef %24, i32 noundef 17)
  store ptr %25, ptr %10, align 8, !tbaa !816
  %26 = load i32, ptr %3, align 4, !tbaa !48
  %27 = getelementptr inbounds nuw i8, ptr %.val, i64 48
  %28 = load ptr, ptr %27, align 8, !tbaa !817
  %29 = load ptr, ptr %28, align 8, !tbaa !92
  %30 = atomicrmw add ptr %29, i32 %26 seq_cst, align 4
  call void @llvm.lifetime.end.p0(i64 4, ptr nonnull %3) #31
  ret void
}